; Function Attrs: mustprogress nofree norecurse nosync nounwind willreturn memory(read, argmem: readwrite, inaccessiblemem: none) uwtable
define void @tls1_get_formatlist(ptr noundef readonly captures(none) %0, ptr noundef writeonly captures(none) initializes((0, 8)) %1, ptr noundef writeonly captures(none) initializes((0, 8)) %2) local_unnamed_addr #7 {
  %4 = getelementptr inbounds nuw i8, ptr %0, i64 2672
  %5 = load ptr, ptr %4, align 8, !tbaa !174
  %.not = icmp eq ptr %5, null
  br i1 %.not, label %9, label %6

6:                                                ; preds = %3
  store ptr %5, ptr %1, align 8, !tbaa !175
  %7 = getelementptr inbounds nuw i8, ptr %0, i64 2664
  %8 = load i64, ptr %7, align 8, !tbaa !176
  br label %15

9:                                                ; preds = %3
  store ptr @ecformats_default, ptr %1, align 8, !tbaa !175
  %10 = getelementptr inbounds nuw i8, ptr %0, i64 2176
  %11 = load ptr, ptr %10, align 8, !tbaa !127
  %12 = getelementptr inbounds nuw i8, ptr %11, i64 28
  %13 = load i32, ptr %12, align 4, !tbaa !128
  %14 = and i32 %13, 196608
  %.not9 = icmp eq i32 %14, 0
  %. = select i1 %.not9, i64 3, i64 2
  br label %15

15:                                               ; preds = %9, %6
  %.sink = phi i64 [ %8, %6 ], [ %., %9 ]
  store i64 %.sink, ptr %2, align 8, !tbaa !105
  ret void
}